target datalayout = "e-m:e-p270:32:32-p271:32:32-p272:64:64-i64:64-i128:128-f80:128-n8:16:32:64-S128"
target triple = "x86_64-pc-linux-gnu"

%"class.duckdb::shared_ptr" = type { %"class.std::shared_ptr" }
%"class.std::shared_ptr" = type { %"class.std::__shared_ptr" }
%"class.std::__shared_ptr" = type { ptr, %"class.std::__shared_count" }
%"class.std::__shared_count" = type { ptr }
%"struct.duckdb::MetadataBlock" = type { %"class.duckdb::shared_ptr", i64, %"class.duckdb::vector" }
%"class.duckdb::vector" = type { %"class.std::vector" }
%"class.std::vector" = type { %"struct.std::_Vector_base" }
%"struct.std::_Vector_base" = type { %"struct.std::_Vector_base<unsigned char, std::allocator<unsigned char>>::_Vector_impl" }
%"struct.std::_Vector_base<unsigned char, std::allocator<unsigned char>>::_Vector_impl" = type { %"struct.std::_Vector_base<unsigned char, std::allocator<unsigned char>>::_Vector_impl_data" }
%"struct.std::_Vector_base<unsigned char, std::allocator<unsigned char>>::_Vector_impl_data" = type { ptr, ptr, ptr }

; Function Attrs: mustprogress nounwind uwtable
define linkonce_odr noundef i64 @_ZNKSt6vectorIhSaIhEE4sizeEv(ptr noundef nonnull align 8 dereferenceable(24) %0) #0 comdat align 2 {
  %2 = alloca ptr, align 8
  store ptr %0, ptr %2, align 8, !tbaa !45
  %3 = load ptr, ptr %2, align 8
  %4 = getelementptr inbounds nuw %"struct.std::_Vector_base", ptr %3, i32 0, i32 0
  %5 = getelementptr inbounds nuw %"struct.std::_Vector_base<unsigned char, std::allocator<unsigned char>>::_Vector_impl_data", ptr %4, i32 0, i32 1
  %6 = load ptr, ptr %5, align 8, !tbaa !103
  %7 = getelementptr inbounds nuw %"struct.std::_Vector_base", ptr %3, i32 0, i32 0
  %8 = getelementptr inbounds nuw %"struct.std::_Vector_base<unsigned char, std::allocator<unsigned char>>::_Vector_impl_data", ptr %7, i32 0, i32 0
  %9 = load ptr, ptr %8, align 8, !tbaa !145
  %10 = ptrtoint ptr %6 to i64
  %11 = ptrtoint ptr %9 to i64
  %12 = sub i64 %10, %11
  ret i64 %12
}

; Function Attrs: mustprogress uwtable
define noundef i64 @_ZN6duckdb13MetadataBlock19FreeBlocksToIntegerEv(ptr noundef nonnull align 8 dereferenceable(48) %0) #2 align 2 {
  %2 = alloca ptr, align 8
  %3 = alloca i64, align 8
  %4 = alloca i64, align 8
  %5 = alloca i64, align 8
  store ptr %0, ptr %2, align 8, !tbaa !20
  %6 = load ptr, ptr %2, align 8
  call void @llvm.lifetime.start.p0(i64 8, ptr %3) #19
  store i64 0, ptr %3, align 8, !tbaa !16
  call void @llvm.lifetime.start.p0(i64 8, ptr %4) #19
  store i64 0, ptr %4, align 8, !tbaa !16
  br label %7

7:                                                ; preds = %23, %1
  %8 = load i64, ptr %4, align 8, !tbaa !16
  %9 = getelementptr inbounds nuw %"struct.duckdb::MetadataBlock", ptr %6, i32 0, i32 2
  %10 = call noundef i64 @_ZNKSt6vectorIhSaIhEE4sizeEv(ptr noundef nonnull align 8 dereferenceable(24) %9) #19
  %11 = icmp ult i64 %8, %10
  br i1 %11, label %13, label %12

12:                                               ; preds = %7
  call void @llvm.lifetime.end.p0(i64 8, ptr %4) #19
  br label %26

13:                                               ; preds = %7
  call void @llvm.lifetime.start.p0(i64 8, ptr %5) #19
  %14 = getelementptr inbounds nuw %"struct.duckdb::MetadataBlock", ptr %6, i32 0, i32 2
  %15 = load i64, ptr %4, align 8, !tbaa !16
  %16 = call noundef nonnull align 1 dereferenceable(1) ptr @_ZN6duckdb6vectorIhLb1EEixEm(ptr noundef nonnull align 8 dereferenceable(24) %14, i64 noundef %15)
  %17 = load i8, ptr %16, align 1, !tbaa !37
  %18 = zext i8 %17 to i64
  %19 = shl i64 1, %18
  store i64 %19, ptr %5, align 8, !tbaa !16
  %20 = load i64, ptr %5, align 8, !tbaa !16
  %21 = load i64, ptr %3, align 8, !tbaa !16
  %22 = or i64 %21, %20
  store i64 %22, ptr %3, align 8, !tbaa !16
  call void @llvm.lifetime.end.p0(i64 8, ptr %5) #19
  br label %23

23:                                               ; preds = %13
  %24 = load i64, ptr %4, align 8, !tbaa !16
  %25 = add i64 %24, 1
  store i64 %25, ptr %4, align 8, !tbaa !16
  br label %7, !llvm.loop !143

26:                                               ; preds = %12
  %27 = load i64, ptr %3, align 8, !tbaa !16
  call void @llvm.lifetime.end.p0(i64 8, ptr %3) #19
  ret i64 %27
}