; Function Attrs: mustprogress uwtable
define noundef i64 @_ZN6duckdb13MetadataBlock19FreeBlocksToIntegerEv(ptr noundef nonnull align 8 dereferenceable(48) %0) local_unnamed_addr #2 align 2 {
  %2 = getelementptr inbounds nuw i8, ptr %0, i64 24
  %3 = getelementptr inbounds nuw i8, ptr %0, i64 32
  %4 = load ptr, ptr %3, align 8, !tbaa !90
  %5 = load ptr, ptr %2, align 8, !tbaa !102
  %.not = icmp eq ptr %4, %5
  br i1 %.not, label %._crit_edge, label %.lr.ph

._crit_edge:                                      ; preds = %.lr.ph, %1
  %.0.lcssa = phi i64 [ 0, %1 ], [ %10, %.lr.ph ]
  ret i64 %.0.lcssa

.lr.ph:                                           ; preds = %1, %.lr.ph
  %.08 = phi i64 [ %10, %.lr.ph ], [ 0, %1 ]
  %.067 = phi i64 [ %11, %.lr.ph ], [ 0, %1 ]
  %6 = tail call noundef nonnull align 1 dereferenceable(1) ptr @_ZN6duckdb6vectorIhLb1EEixEm(ptr noundef nonnull align 8 dereferenceable(24) %2, i64 noundef %.067)
  %7 = load i8, ptr %6, align 1, !tbaa !89
  %8 = zext nneg i8 %7 to i64
  %9 = shl nuw i64 1, %8
  %10 = or i64 %9, %.08
  %11 = add nuw i64 %.067, 1
  %12 = load ptr, ptr %3, align 8, !tbaa !90
  %13 = load ptr, ptr %2, align 8, !tbaa !102
  %14 = ptrtoint ptr %12 to i64
  %15 = ptrtoint ptr %13 to i64
  %16 = sub i64 %14, %15
  %17 = icmp ult i64 %11, %16
  br i1 %17, label %.lr.ph, label %._crit_edge, !llvm.loop !129
}